
serialdebug.elf:     file format elf32-avr

Sections:
Idx Name          Size      VMA       LMA       File off  Algn
  0 .text         00000424  00000000  00000000  00000094  2**1
                  CONTENTS, ALLOC, LOAD, READONLY, CODE
  1 .data         00000016  00800060  00000424  000004b8  2**0
                  CONTENTS, ALLOC, LOAD, DATA
  2 .bss          00000049  00800076  00800076  000004ce  2**0
                  ALLOC
  3 .stab         000006cc  00000000  00000000  000004d0  2**2
                  CONTENTS, READONLY, DEBUGGING
  4 .stabstr      00000085  00000000  00000000  00000b9c  2**0
                  CONTENTS, READONLY, DEBUGGING
  5 .debug_aranges 00000020  00000000  00000000  00000c21  2**0
                  CONTENTS, READONLY, DEBUGGING
  6 .debug_pubnames 0000014a  00000000  00000000  00000c41  2**0
                  CONTENTS, READONLY, DEBUGGING
  7 .debug_info   00000418  00000000  00000000  00000d8b  2**0
                  CONTENTS, READONLY, DEBUGGING
  8 .debug_abbrev 00000136  00000000  00000000  000011a3  2**0
                  CONTENTS, READONLY, DEBUGGING
  9 .debug_line   00000604  00000000  00000000  000012d9  2**0
                  CONTENTS, READONLY, DEBUGGING
 10 .debug_frame  000000f0  00000000  00000000  000018e0  2**2
                  CONTENTS, READONLY, DEBUGGING
 11 .debug_str    0000017e  00000000  00000000  000019d0  2**0
                  CONTENTS, READONLY, DEBUGGING
 12 .debug_loc    00000352  00000000  00000000  00001b4e  2**0
                  CONTENTS, READONLY, DEBUGGING
 13 .debug_pubtypes 0000001e  00000000  00000000  00001ea0  2**0
                  CONTENTS, READONLY, DEBUGGING

Disassembly of section .text:

00000000 <__vectors>:
   0:	0c 94 2a 00 	jmp	0x54	; 0x54 <__ctors_end>
   4:	0c 94 47 00 	jmp	0x8e	; 0x8e <__bad_interrupt>
   8:	0c 94 47 00 	jmp	0x8e	; 0x8e <__bad_interrupt>
   c:	0c 94 47 00 	jmp	0x8e	; 0x8e <__bad_interrupt>
  10:	0c 94 47 00 	jmp	0x8e	; 0x8e <__bad_interrupt>
  14:	0c 94 47 00 	jmp	0x8e	; 0x8e <__bad_interrupt>
  18:	0c 94 47 00 	jmp	0x8e	; 0x8e <__bad_interrupt>
  1c:	0c 94 47 00 	jmp	0x8e	; 0x8e <__bad_interrupt>
  20:	0c 94 47 00 	jmp	0x8e	; 0x8e <__bad_interrupt>
  24:	0c 94 47 00 	jmp	0x8e	; 0x8e <__bad_interrupt>
  28:	0c 94 47 00 	jmp	0x8e	; 0x8e <__bad_interrupt>
  2c:	0c 94 5a 00 	jmp	0xb4	; 0xb4 <__vector_11>
  30:	0c 94 47 00 	jmp	0x8e	; 0x8e <__bad_interrupt>
  34:	0c 94 79 00 	jmp	0xf2	; 0xf2 <__vector_13>
  38:	0c 94 47 00 	jmp	0x8e	; 0x8e <__bad_interrupt>
  3c:	0c 94 47 00 	jmp	0x8e	; 0x8e <__bad_interrupt>
  40:	0c 94 47 00 	jmp	0x8e	; 0x8e <__bad_interrupt>
  44:	0c 94 47 00 	jmp	0x8e	; 0x8e <__bad_interrupt>
  48:	0c 94 47 00 	jmp	0x8e	; 0x8e <__bad_interrupt>
  4c:	0c 94 47 00 	jmp	0x8e	; 0x8e <__bad_interrupt>
  50:	0c 94 47 00 	jmp	0x8e	; 0x8e <__bad_interrupt>

00000054 <__ctors_end>:
  54:	11 24       	eor	r1, r1
  56:	1f be       	out	0x3f, r1	; 63
  58:	cf e5       	ldi	r28, 0x5F	; 95
  5a:	d4 e0       	ldi	r29, 0x04	; 4
  5c:	de bf       	out	0x3e, r29	; 62
  5e:	cd bf       	out	0x3d, r28	; 61

00000060 <__do_copy_data>:
  60:	10 e0       	ldi	r17, 0x00	; 0
  62:	a0 e6       	ldi	r26, 0x60	; 96
  64:	b0 e0       	ldi	r27, 0x00	; 0
  66:	e4 e2       	ldi	r30, 0x24	; 36
  68:	f4 e0       	ldi	r31, 0x04	; 4
  6a:	02 c0       	rjmp	.+4      	; 0x70 <__do_copy_data+0x10>
  6c:	05 90       	lpm	r0, Z+
  6e:	0d 92       	st	X+, r0
  70:	a6 37       	cpi	r26, 0x76	; 118
  72:	b1 07       	cpc	r27, r17
  74:	d9 f7       	brne	.-10     	; 0x6c <__do_copy_data+0xc>

00000076 <__do_clear_bss>:
  76:	10 e0       	ldi	r17, 0x00	; 0
  78:	a6 e7       	ldi	r26, 0x76	; 118
  7a:	b0 e0       	ldi	r27, 0x00	; 0
  7c:	01 c0       	rjmp	.+2      	; 0x80 <.do_clear_bss_start>

0000007e <.do_clear_bss_loop>:
  7e:	1d 92       	st	X+, r1

00000080 <.do_clear_bss_start>:
  80:	af 3b       	cpi	r26, 0xBF	; 191
  82:	b1 07       	cpc	r27, r17
  84:	e1 f7       	brne	.-8      	; 0x7e <.do_clear_bss_loop>
  86:	0e 94 f2 01 	call	0x3e4	; 0x3e4 <main>
  8a:	0c 94 10 02 	jmp	0x420	; 0x420 <_exit>

0000008e <__bad_interrupt>:
  8e:	0c 94 00 00 	jmp	0	; 0x0 <__vectors>

00000092 <initUSART>:
uint8_t usart_tx_rp;
char usart_tx_buf[USART_TX_BUF];

void initUSART(void)
{
        UBRRL = LO(bauddivider);
  92:	89 e1       	ldi	r24, 0x19	; 25
  94:	89 b9       	out	0x09, r24	; 9
        UBRRH = HI(bauddivider);
  96:	10 bc       	out	0x20, r1	; 32
        UCSRA = 0;
  98:	1b b8       	out	0x0b, r1	; 11
        UCSRB = 1<<RXEN|1<<TXEN|1<<RXCIE|1<<TXCIE;
  9a:	88 ed       	ldi	r24, 0xD8	; 216
  9c:	8a b9       	out	0x0a, r24	; 10
        UCSRC = 1<<URSEL|1<<UCSZ0|1<<UCSZ1;
  9e:	86 e8       	ldi	r24, 0x86	; 134
  a0:	80 bd       	out	0x20, r24	; 32

		usart_rx_wp = 0;
  a2:	10 92 ba 00 	sts	0x00BA, r1
		usart_rx_rp = 0;
  a6:	10 92 97 00 	sts	0x0097, r1

		usart_tx_wp = 0;
  aa:	10 92 98 00 	sts	0x0098, r1
		usart_tx_rp = 0;
  ae:	10 92 b9 00 	sts	0x00B9, r1
}
  b2:	08 95       	ret

000000b4 <__vector_11>:

ISR(USART_RXC_vect)
{
  b4:	1f 92       	push	r1
  b6:	0f 92       	push	r0
  b8:	0f b6       	in	r0, 0x3f	; 63
  ba:	0f 92       	push	r0
  bc:	11 24       	eor	r1, r1
  be:	8f 93       	push	r24
  c0:	9f 93       	push	r25
  c2:	ef 93       	push	r30
  c4:	ff 93       	push	r31
	char c = UDR;
  c6:	9c b1       	in	r25, 0x0c	; 12
	if (usart_rx_wp<USART_RX_BUF) {
  c8:	80 91 ba 00 	lds	r24, 0x00BA
  cc:	80 32       	cpi	r24, 0x20	; 32
  ce:	40 f4       	brcc	.+16     	; 0xe0 <__vector_11+0x2c>
		usart_rx_buf[usart_rx_wp] = c;
  d0:	e8 2f       	mov	r30, r24
  d2:	f0 e0       	ldi	r31, 0x00	; 0
  d4:	e7 56       	subi	r30, 0x67	; 103
  d6:	ff 4f       	sbci	r31, 0xFF	; 255
  d8:	90 83       	st	Z, r25
		usart_rx_wp++;
  da:	8f 5f       	subi	r24, 0xFF	; 255
  dc:	80 93 ba 00 	sts	0x00BA, r24
	} //else we lose byte from UART
}
  e0:	ff 91       	pop	r31
  e2:	ef 91       	pop	r30
  e4:	9f 91       	pop	r25
  e6:	8f 91       	pop	r24
  e8:	0f 90       	pop	r0
  ea:	0f be       	out	0x3f, r0	; 63
  ec:	0f 90       	pop	r0
  ee:	1f 90       	pop	r1
  f0:	18 95       	reti

000000f2 <__vector_13>:

ISR(USART_TXC_vect)
{
  f2:	1f 92       	push	r1
  f4:	0f 92       	push	r0
  f6:	0f b6       	in	r0, 0x3f	; 63
  f8:	0f 92       	push	r0
  fa:	11 24       	eor	r1, r1
  fc:	2f 93       	push	r18
  fe:	8f 93       	push	r24
 100:	9f 93       	push	r25
 102:	ef 93       	push	r30
 104:	ff 93       	push	r31
	if (usart_tx_rp<usart_tx_wp) {
 106:	80 91 b9 00 	lds	r24, 0x00B9
 10a:	90 91 98 00 	lds	r25, 0x0098
 10e:	89 17       	cp	r24, r25
 110:	78 f4       	brcc	.+30     	; 0x130 <__vector_13+0x3e>
		UDR = usart_tx_buf[usart_tx_rp];
 112:	e8 2f       	mov	r30, r24
 114:	f0 e0       	ldi	r31, 0x00	; 0
 116:	e9 58       	subi	r30, 0x89	; 137
 118:	ff 4f       	sbci	r31, 0xFF	; 255
 11a:	20 81       	ld	r18, Z
 11c:	2c b9       	out	0x0c, r18	; 12
		usart_tx_rp++;
 11e:	8f 5f       	subi	r24, 0xFF	; 255
 120:	80 93 b9 00 	sts	0x00B9, r24
		if (usart_tx_rp>=usart_tx_wp) {
 124:	89 17       	cp	r24, r25
 126:	20 f0       	brcs	.+8      	; 0x130 <__vector_13+0x3e>
			usart_tx_rp = 0;
 128:	10 92 b9 00 	sts	0x00B9, r1
			usart_tx_wp = 0;
 12c:	10 92 98 00 	sts	0x0098, r1
		}
	}	
}
 130:	ff 91       	pop	r31
 132:	ef 91       	pop	r30
 134:	9f 91       	pop	r25
 136:	8f 91       	pop	r24
 138:	2f 91       	pop	r18
 13a:	0f 90       	pop	r0
 13c:	0f be       	out	0x3f, r0	; 63
 13e:	0f 90       	pop	r0
 140:	1f 90       	pop	r1
 142:	18 95       	reti

00000144 <putchr>:

void putchr(char ch)
{
	cli();
 144:	f8 94       	cli
	if (usart_tx_wp<USART_TX_BUF) {
 146:	90 91 98 00 	lds	r25, 0x0098
 14a:	90 32       	cpi	r25, 0x20	; 32
 14c:	40 f4       	brcc	.+16     	; 0x15e <putchr+0x1a>
		usart_tx_buf[usart_tx_wp] = ch;
 14e:	e9 2f       	mov	r30, r25
 150:	f0 e0       	ldi	r31, 0x00	; 0
 152:	e9 58       	subi	r30, 0x89	; 137
 154:	ff 4f       	sbci	r31, 0xFF	; 255
 156:	80 83       	st	Z, r24
		usart_tx_wp++;
 158:	9f 5f       	subi	r25, 0xFF	; 255
 15a:	90 93 98 00 	sts	0x0098, r25
	} //else buffer overflow error
	sei();
 15e:	78 94       	sei

	if (UCSRA & (1<<UDRE)) {
 160:	5d 9b       	sbis	0x0b, 5	; 11
 162:	13 c0       	rjmp	.+38     	; 0x18a <putchr+0x46>
		UDR = usart_tx_buf[usart_tx_rp];
 164:	80 91 b9 00 	lds	r24, 0x00B9
 168:	e8 2f       	mov	r30, r24
 16a:	f0 e0       	ldi	r31, 0x00	; 0
 16c:	e9 58       	subi	r30, 0x89	; 137
 16e:	ff 4f       	sbci	r31, 0xFF	; 255
 170:	90 81       	ld	r25, Z
 172:	9c b9       	out	0x0c, r25	; 12
		usart_tx_rp++;
 174:	8f 5f       	subi	r24, 0xFF	; 255
 176:	80 93 b9 00 	sts	0x00B9, r24
		if (usart_tx_rp>=usart_tx_wp) {
 17a:	90 91 98 00 	lds	r25, 0x0098
 17e:	89 17       	cp	r24, r25
 180:	20 f0       	brcs	.+8      	; 0x18a <putchr+0x46>
			usart_tx_rp = 0;
 182:	10 92 b9 00 	sts	0x00B9, r1
			usart_tx_wp = 0;
 186:	10 92 98 00 	sts	0x0098, r1
 18a:	08 95       	ret

0000018c <chrready>:
	}
}

char chrready(void)
{
	return (usart_rx_wp>usart_rx_rp);
 18c:	81 e0       	ldi	r24, 0x01	; 1
 18e:	20 91 ba 00 	lds	r18, 0x00BA
 192:	90 91 97 00 	lds	r25, 0x0097
 196:	92 17       	cp	r25, r18
 198:	08 f0       	brcs	.+2      	; 0x19c <chrready+0x10>
 19a:	80 e0       	ldi	r24, 0x00	; 0
}
 19c:	08 95       	ret

0000019e <getchr>:

char getchr(void)
{
	sei();
 19e:	78 94       	sei
	while (!chrready());
 1a0:	0e 94 c6 00 	call	0x18c	; 0x18c <chrready>
 1a4:	88 23       	and	r24, r24
 1a6:	a9 f0       	breq	.+42     	; 0x1d2 <getchr+0x34>
	cli();
 1a8:	f8 94       	cli
	char c = usart_rx_buf[usart_rx_rp];
 1aa:	90 91 97 00 	lds	r25, 0x0097
 1ae:	e9 2f       	mov	r30, r25
 1b0:	f0 e0       	ldi	r31, 0x00	; 0
 1b2:	e7 56       	subi	r30, 0x67	; 103
 1b4:	ff 4f       	sbci	r31, 0xFF	; 255
 1b6:	80 81       	ld	r24, Z
	usart_rx_rp++;
 1b8:	9f 5f       	subi	r25, 0xFF	; 255
 1ba:	90 93 97 00 	sts	0x0097, r25
	if (usart_rx_rp >= usart_rx_wp) {
 1be:	20 91 ba 00 	lds	r18, 0x00BA
 1c2:	92 17       	cp	r25, r18
 1c4:	20 f0       	brcs	.+8      	; 0x1ce <getchr+0x30>
		usart_rx_rp = 0;
 1c6:	10 92 97 00 	sts	0x0097, r1
		usart_rx_wp = 0;
 1ca:	10 92 ba 00 	sts	0x00BA, r1
	}
	sei();
 1ce:	78 94       	sei
	return c;
}
 1d0:	08 95       	ret
 1d2:	ff cf       	rjmp	.-2      	; 0x1d2 <getchr+0x34>

000001d4 <printstr>:

void printstr(char *string)
{
 1d4:	ef 92       	push	r14
 1d6:	ff 92       	push	r15
 1d8:	cf 93       	push	r28
 1da:	df 93       	push	r29
 1dc:	e8 2e       	mov	r14, r24
 1de:	e7 01       	movw	r28, r14
 1e0:	7e 01       	movw	r14, r28
 1e2:	f9 2e       	mov	r15, r25
 1e4:	e7 01       	movw	r28, r14
	while (*string!='\0')
 1e6:	02 c0       	rjmp	.+4      	; 0x1ec <printstr+0x18>
	{
		putchr(*string);
 1e8:	0e 94 a2 00 	call	0x144	; 0x144 <putchr>
	return c;
}

void printstr(char *string)
{
	while (*string!='\0')
 1ec:	89 91       	ld	r24, Y+
 1ee:	88 23       	and	r24, r24
 1f0:	d9 f7       	brne	.-10     	; 0x1e8 <printstr+0x14>
	{
		putchr(*string);
		string++;
	}
}
 1f2:	df 91       	pop	r29
 1f4:	cf 91       	pop	r28
 1f6:	ff 90       	pop	r15
 1f8:	ef 90       	pop	r14
 1fa:	08 95       	ret

000001fc <chartohex>:

char chartohex(char c) //only for 0x00 - 0x0F
{
	char ch = c & 0x0F;
 1fc:	8f 70       	andi	r24, 0x0F	; 15
	char hx = ((ch<10)?(ch+'0'):(ch+'A'-10));
 1fe:	8a 30       	cpi	r24, 0x0A	; 10
 200:	10 f4       	brcc	.+4      	; 0x206 <chartohex+0xa>
 202:	80 5d       	subi	r24, 0xD0	; 208
 204:	08 95       	ret
 206:	89 5c       	subi	r24, 0xC9	; 201
	return hx;
}
 208:	08 95       	ret

0000020a <hextochar>:

char hextochar(char c)
{
	char ch = (c<='9')?(c-'0'):((c<='F')?(c-'A'+10):((c<='f')?(c-'a'+10):0));
 20a:	8a 33       	cpi	r24, 0x3A	; 58
 20c:	10 f4       	brcc	.+4      	; 0x212 <hextochar+0x8>
 20e:	80 53       	subi	r24, 0x30	; 48
 210:	08 95       	ret
 212:	87 34       	cpi	r24, 0x47	; 71
 214:	10 f4       	brcc	.+4      	; 0x21a <hextochar+0x10>
 216:	87 53       	subi	r24, 0x37	; 55
 218:	08 95       	ret
 21a:	87 36       	cpi	r24, 0x67	; 103
 21c:	10 f4       	brcc	.+4      	; 0x222 <hextochar+0x18>
 21e:	87 55       	subi	r24, 0x57	; 87
 220:	08 95       	ret
 222:	80 e0       	ldi	r24, 0x00	; 0
	return ch;
}
 224:	08 95       	ret

00000226 <printhex>:

void printhex(char c)
{
 226:	1f 93       	push	r17
	char lo = c & 0x0F;
 228:	98 2f       	mov	r25, r24
 22a:	9f 70       	andi	r25, 0x0F	; 15
	char hi = (c & 0xF0) >> 4;
 22c:	18 2f       	mov	r17, r24
 22e:	12 95       	swap	r17
 230:	1f 70       	andi	r17, 0x0F	; 15
	putchr(lo + ((lo<10)?'0':'A'-10));
 232:	9a 30       	cpi	r25, 0x0A	; 10
 234:	10 f4       	brcc	.+4      	; 0x23a <printhex+0x14>
 236:	80 e3       	ldi	r24, 0x30	; 48
 238:	01 c0       	rjmp	.+2      	; 0x23c <printhex+0x16>
 23a:	87 e3       	ldi	r24, 0x37	; 55
 23c:	89 0f       	add	r24, r25
 23e:	0e 94 a2 00 	call	0x144	; 0x144 <putchr>
	putchr(hi + ((hi<10)?'0':'A'-10));
 242:	1a 30       	cpi	r17, 0x0A	; 10
 244:	10 f4       	brcc	.+4      	; 0x24a <printhex+0x24>
 246:	80 e3       	ldi	r24, 0x30	; 48
 248:	01 c0       	rjmp	.+2      	; 0x24c <printhex+0x26>
 24a:	87 e3       	ldi	r24, 0x37	; 55
 24c:	81 0f       	add	r24, r17
 24e:	0e 94 a2 00 	call	0x144	; 0x144 <putchr>
}
 252:	1f 91       	pop	r17
 254:	08 95       	ret

00000256 <clearcmdbuf>:
uint8_t cmd_buf_p;
char cmd_buf[CMD_BUF];

void clearcmdbuf()
{
	cmd_buf_p = 0;
 256:	10 92 76 00 	sts	0x0076, r1
	uint8_t i;
	for (i = 0; i<CMD_BUF; i++) {
		cmd_buf[i] = 0;
 25a:	10 92 bb 00 	sts	0x00BB, r1
 25e:	10 92 bc 00 	sts	0x00BC, r1
 262:	10 92 bd 00 	sts	0x00BD, r1
 266:	10 92 be 00 	sts	0x00BE, r1
	}
}
 26a:	08 95       	ret

0000026c <executecmd>:

void executecmd()
{
 26c:	0f 93       	push	r16
 26e:	1f 93       	push	r17
	if (cmd_buf[0]) {
 270:	80 91 bb 00 	lds	r24, 0x00BB
 274:	88 23       	and	r24, r24
 276:	09 f4       	brne	.+2      	; 0x27a <executecmd+0xe>
 278:	89 c0       	rjmp	.+274    	; 0x38c <executecmd+0x120>
		switch (cmd_buf[0]) {
 27a:	89 34       	cpi	r24, 0x49	; 73
 27c:	21 f0       	breq	.+8      	; 0x286 <executecmd+0x1a>
 27e:	8f 34       	cpi	r24, 0x4F	; 79
 280:	09 f0       	breq	.+2      	; 0x284 <executecmd+0x18>
 282:	80 c0       	rjmp	.+256    	; 0x384 <executecmd+0x118>
 284:	3e c0       	rjmp	.+124    	; 0x302 <executecmd+0x96>
			case 'I': {
				char b = 0;
				switch (cmd_buf[1]) {
 286:	80 91 bc 00 	lds	r24, 0x00BC
 28a:	86 34       	cpi	r24, 0x46	; 70
 28c:	51 f1       	breq	.+84     	; 0x2e2 <executecmd+0x76>
 28e:	87 34       	cpi	r24, 0x47	; 71
 290:	70 f4       	brcc	.+28     	; 0x2ae <executecmd+0x42>
 292:	83 34       	cpi	r24, 0x43	; 67
 294:	01 f1       	breq	.+64     	; 0x2d6 <executecmd+0x6a>
 296:	84 34       	cpi	r24, 0x44	; 68
 298:	28 f4       	brcc	.+10     	; 0x2a4 <executecmd+0x38>
 29a:	81 34       	cpi	r24, 0x41	; 65
 29c:	c1 f0       	breq	.+48     	; 0x2ce <executecmd+0x62>
 29e:	82 34       	cpi	r24, 0x42	; 66
 2a0:	71 f5       	brne	.+92     	; 0x2fe <executecmd+0x92>
 2a2:	17 c0       	rjmp	.+46     	; 0x2d2 <executecmd+0x66>
 2a4:	84 34       	cpi	r24, 0x44	; 68
 2a6:	c9 f0       	breq	.+50     	; 0x2da <executecmd+0x6e>
 2a8:	85 34       	cpi	r24, 0x45	; 69
 2aa:	49 f5       	brne	.+82     	; 0x2fe <executecmd+0x92>
 2ac:	18 c0       	rjmp	.+48     	; 0x2de <executecmd+0x72>
 2ae:	89 34       	cpi	r24, 0x49	; 73
 2b0:	f1 f0       	breq	.+60     	; 0x2ee <executecmd+0x82>
 2b2:	8a 34       	cpi	r24, 0x4A	; 74
 2b4:	28 f4       	brcc	.+10     	; 0x2c0 <executecmd+0x54>
 2b6:	87 34       	cpi	r24, 0x47	; 71
 2b8:	b1 f0       	breq	.+44     	; 0x2e6 <executecmd+0x7a>
 2ba:	88 34       	cpi	r24, 0x48	; 72
 2bc:	01 f5       	brne	.+64     	; 0x2fe <executecmd+0x92>
 2be:	15 c0       	rjmp	.+42     	; 0x2ea <executecmd+0x7e>
 2c0:	8b 34       	cpi	r24, 0x4B	; 75
 2c2:	c9 f0       	breq	.+50     	; 0x2f6 <executecmd+0x8a>
 2c4:	8b 34       	cpi	r24, 0x4B	; 75
 2c6:	a8 f0       	brcs	.+42     	; 0x2f2 <executecmd+0x86>
 2c8:	8c 34       	cpi	r24, 0x4C	; 76
 2ca:	c9 f4       	brne	.+50     	; 0x2fe <executecmd+0x92>
 2cc:	16 c0       	rjmp	.+44     	; 0x2fa <executecmd+0x8e>
					case 'A': {
						b = PINA;
 2ce:	19 b3       	in	r17, 0x19	; 25
						break;
 2d0:	4a c0       	rjmp	.+148    	; 0x366 <executecmd+0xfa>
					}
					case 'B': {
						b = PINB;
 2d2:	16 b3       	in	r17, 0x16	; 22
						break;
 2d4:	48 c0       	rjmp	.+144    	; 0x366 <executecmd+0xfa>
					}
					case 'C': {
						b = PINC;
 2d6:	13 b3       	in	r17, 0x13	; 19
						break;
 2d8:	46 c0       	rjmp	.+140    	; 0x366 <executecmd+0xfa>
					}
					case 'D': {
						b = PIND;
 2da:	10 b3       	in	r17, 0x10	; 16
						break;
 2dc:	44 c0       	rjmp	.+136    	; 0x366 <executecmd+0xfa>
					}
					case 'E': {
						b = DDRA;
 2de:	1a b3       	in	r17, 0x1a	; 26
						break;
 2e0:	42 c0       	rjmp	.+132    	; 0x366 <executecmd+0xfa>
					}
					case 'F': {
						b = DDRB;
 2e2:	17 b3       	in	r17, 0x17	; 23
						break;
 2e4:	40 c0       	rjmp	.+128    	; 0x366 <executecmd+0xfa>
					}
					case 'G': {
						b = DDRC;
 2e6:	14 b3       	in	r17, 0x14	; 20
						break;
 2e8:	3e c0       	rjmp	.+124    	; 0x366 <executecmd+0xfa>
					}
					case 'H': {
						b = DDRD;
 2ea:	11 b3       	in	r17, 0x11	; 17
						break;
 2ec:	3c c0       	rjmp	.+120    	; 0x366 <executecmd+0xfa>
					}
					case 'I': {
						b = PORTA;
 2ee:	1b b3       	in	r17, 0x1b	; 27
						break;
 2f0:	3a c0       	rjmp	.+116    	; 0x366 <executecmd+0xfa>
					}
					case 'J': {
						b = PORTB;
 2f2:	18 b3       	in	r17, 0x18	; 24
						break;
 2f4:	38 c0       	rjmp	.+112    	; 0x366 <executecmd+0xfa>
					}
					case 'K': {
						b = PORTC;
 2f6:	15 b3       	in	r17, 0x15	; 21
						break;
 2f8:	36 c0       	rjmp	.+108    	; 0x366 <executecmd+0xfa>
					}
					case 'L': {
						b = PORTD;
 2fa:	12 b3       	in	r17, 0x12	; 18
						break;
 2fc:	34 c0       	rjmp	.+104    	; 0x366 <executecmd+0xfa>
void executecmd()
{
	if (cmd_buf[0]) {
		switch (cmd_buf[0]) {
			case 'I': {
				char b = 0;
 2fe:	10 e0       	ldi	r17, 0x00	; 0
 300:	32 c0       	rjmp	.+100    	; 0x366 <executecmd+0xfa>
				putchr(chartohex(b));
				printstr("\n\r");
				break;
			}
			case 'O': {
				char b = hextochar(cmd_buf[3])+(hextochar(cmd_buf[2])<<4);
 302:	80 91 be 00 	lds	r24, 0x00BE
 306:	0e 94 05 01 	call	0x20a	; 0x20a <hextochar>
 30a:	08 2f       	mov	r16, r24
 30c:	80 91 bd 00 	lds	r24, 0x00BD
 310:	0e 94 05 01 	call	0x20a	; 0x20a <hextochar>
 314:	18 2f       	mov	r17, r24
 316:	12 95       	swap	r17
 318:	10 7f       	andi	r17, 0xF0	; 240
 31a:	10 0f       	add	r17, r16
				switch (cmd_buf[1]) {
 31c:	80 91 bc 00 	lds	r24, 0x00BC
 320:	84 34       	cpi	r24, 0x44	; 68
 322:	c1 f0       	breq	.+48     	; 0x354 <executecmd+0xe8>
 324:	85 34       	cpi	r24, 0x45	; 69
 326:	38 f4       	brcc	.+14     	; 0x336 <executecmd+0xca>
 328:	82 34       	cpi	r24, 0x42	; 66
 32a:	81 f0       	breq	.+32     	; 0x34c <executecmd+0xe0>
 32c:	83 34       	cpi	r24, 0x43	; 67
 32e:	80 f4       	brcc	.+32     	; 0x350 <executecmd+0xe4>
 330:	81 34       	cpi	r24, 0x41	; 65
 332:	c9 f4       	brne	.+50     	; 0x366 <executecmd+0xfa>
 334:	09 c0       	rjmp	.+18     	; 0x348 <executecmd+0xdc>
 336:	86 34       	cpi	r24, 0x46	; 70
 338:	89 f0       	breq	.+34     	; 0x35c <executecmd+0xf0>
 33a:	86 34       	cpi	r24, 0x46	; 70
 33c:	68 f0       	brcs	.+26     	; 0x358 <executecmd+0xec>
 33e:	87 34       	cpi	r24, 0x47	; 71
 340:	79 f0       	breq	.+30     	; 0x360 <executecmd+0xf4>
 342:	88 34       	cpi	r24, 0x48	; 72
 344:	81 f4       	brne	.+32     	; 0x366 <executecmd+0xfa>
 346:	0e c0       	rjmp	.+28     	; 0x364 <executecmd+0xf8>
					case 'A': {
						PORTA = b;
 348:	1b bb       	out	0x1b, r17	; 27
						break;
 34a:	0d c0       	rjmp	.+26     	; 0x366 <executecmd+0xfa>
					}
					case 'B': {
						PORTB = b;
 34c:	18 bb       	out	0x18, r17	; 24
						break;
 34e:	0b c0       	rjmp	.+22     	; 0x366 <executecmd+0xfa>
					}
					case 'C': {
						PORTC = b;
 350:	15 bb       	out	0x15, r17	; 21
						break;
 352:	09 c0       	rjmp	.+18     	; 0x366 <executecmd+0xfa>
					}
					case 'D': {
						PORTD = b;
 354:	12 bb       	out	0x12, r17	; 18
						break;
 356:	07 c0       	rjmp	.+14     	; 0x366 <executecmd+0xfa>
					}
					case 'E': {
						DDRA = b;
 358:	1a bb       	out	0x1a, r17	; 26
						break;
 35a:	05 c0       	rjmp	.+10     	; 0x366 <executecmd+0xfa>
					}
					case 'F': {
						DDRB = b;
 35c:	17 bb       	out	0x17, r17	; 23
						break;
 35e:	03 c0       	rjmp	.+6      	; 0x366 <executecmd+0xfa>
					}
					case 'G': {
						DDRC = b;
 360:	14 bb       	out	0x14, r17	; 20
						break;
 362:	01 c0       	rjmp	.+2      	; 0x366 <executecmd+0xfa>
					}
					case 'H': {
						DDRD = b;
 364:	11 bb       	out	0x11, r17	; 17
						break;
					}
				}
				putchr(chartohex(b>>4));
 366:	81 2f       	mov	r24, r17
 368:	82 95       	swap	r24
 36a:	8f 70       	andi	r24, 0x0F	; 15
 36c:	0e 94 fe 00 	call	0x1fc	; 0x1fc <chartohex>
 370:	0e 94 a2 00 	call	0x144	; 0x144 <putchr>
				putchr(chartohex(b));
 374:	81 2f       	mov	r24, r17
 376:	0e 94 fe 00 	call	0x1fc	; 0x1fc <chartohex>
 37a:	0e 94 a2 00 	call	0x144	; 0x144 <putchr>
				printstr("\n\r");
 37e:	80 e6       	ldi	r24, 0x60	; 96
 380:	90 e0       	ldi	r25, 0x00	; 0
 382:	02 c0       	rjmp	.+4      	; 0x388 <executecmd+0x11c>
				break;
			}

			default: {
				printstr("ERR:UC\n\r");
 384:	83 e6       	ldi	r24, 0x63	; 99
 386:	90 e0       	ldi	r25, 0x00	; 0
 388:	0e 94 ea 00 	call	0x1d4	; 0x1d4 <printstr>
				break;
			}
		}
	}
}
 38c:	1f 91       	pop	r17
 38e:	0f 91       	pop	r16
 390:	08 95       	ret

00000392 <addtocmd>:

void addtocmd(char c)
{
	if ((c == '\n') || (c == '\r')) {
 392:	8a 30       	cpi	r24, 0x0A	; 10
 394:	11 f0       	breq	.+4      	; 0x39a <addtocmd+0x8>
 396:	8d 30       	cpi	r24, 0x0D	; 13
 398:	49 f4       	brne	.+18     	; 0x3ac <addtocmd+0x1a>
		if (cmd_buf_p>0) {
 39a:	80 91 76 00 	lds	r24, 0x0076
 39e:	88 23       	and	r24, r24
 3a0:	11 f0       	breq	.+4      	; 0x3a6 <addtocmd+0x14>
			executecmd();
 3a2:	0e 94 36 01 	call	0x26c	; 0x26c <executecmd>
		}
		clearcmdbuf();
 3a6:	0e 94 2b 01 	call	0x256	; 0x256 <clearcmdbuf>
 3aa:	08 95       	ret
	} else {
		if (cmd_buf_p<CMD_BUF) {
 3ac:	90 91 76 00 	lds	r25, 0x0076
 3b0:	94 30       	cpi	r25, 0x04	; 4
 3b2:	b8 f4       	brcc	.+46     	; 0x3e2 <addtocmd+0x50>
			char ch = 0;
			if ((c>='a') & (c<='z')) {
 3b4:	28 2f       	mov	r18, r24
 3b6:	21 56       	subi	r18, 0x61	; 97
 3b8:	2a 31       	cpi	r18, 0x1A	; 26
 3ba:	10 f4       	brcc	.+4      	; 0x3c0 <addtocmd+0x2e>
				ch = c - 0x20;
 3bc:	80 52       	subi	r24, 0x20	; 32
 3be:	09 c0       	rjmp	.+18     	; 0x3d2 <addtocmd+0x40>
			} else if (((c>='0') & (c<='9')) | ((c>='A') & (c<='Z'))) {
 3c0:	28 2f       	mov	r18, r24
 3c2:	21 54       	subi	r18, 0x41	; 65
 3c4:	2a 31       	cpi	r18, 0x1A	; 26
 3c6:	18 f0       	brcs	.+6      	; 0x3ce <addtocmd+0x3c>
 3c8:	2f 5e       	subi	r18, 0xEF	; 239
 3ca:	2a 30       	cpi	r18, 0x0A	; 10
 3cc:	50 f4       	brcc	.+20     	; 0x3e2 <addtocmd+0x50>
				ch = c;
			}
			if (ch != 0) {
 3ce:	88 23       	and	r24, r24
 3d0:	41 f0       	breq	.+16     	; 0x3e2 <addtocmd+0x50>
				cmd_buf[cmd_buf_p] = ch;
 3d2:	e9 2f       	mov	r30, r25
 3d4:	f0 e0       	ldi	r31, 0x00	; 0
 3d6:	e5 54       	subi	r30, 0x45	; 69
 3d8:	ff 4f       	sbci	r31, 0xFF	; 255
 3da:	80 83       	st	Z, r24
				cmd_buf_p++;
 3dc:	9f 5f       	subi	r25, 0xFF	; 255
 3de:	90 93 76 00 	sts	0x0076, r25
 3e2:	08 95       	ret

000003e4 <main>:
		}
	}
}

int main(void)
{
 3e4:	0f 93       	push	r16
 3e6:	1f 93       	push	r17
	initUSART();
 3e8:	0e 94 49 00 	call	0x92	; 0x92 <initUSART>
	clearcmdbuf();
 3ec:	0e 94 2b 01 	call	0x256	; 0x256 <clearcmdbuf>

	printstr("SD0.01\n\r");
 3f0:	8c e6       	ldi	r24, 0x6C	; 108
 3f2:	90 e0       	ldi	r25, 0x00	; 0
 3f4:	0e 94 ea 00 	call	0x1d4	; 0x1d4 <printstr>
	DDRD |= bv(5);
 3f8:	8d 9a       	sbi	0x11, 5	; 17

	while (1)
	{
		cli();
		ibi(PORTD, 5);
 3fa:	00 e2       	ldi	r16, 0x20	; 32
	printstr("SD0.01\n\r");
	DDRD |= bv(5);

	while (1)
	{
		cli();
 3fc:	f8 94       	cli
		ibi(PORTD, 5);
 3fe:	82 b3       	in	r24, 0x12	; 18
 400:	80 27       	eor	r24, r16
 402:	82 bb       	out	0x12, r24	; 18
		sei();
 404:	78 94       	sei
		if (chrready()) {
 406:	0e 94 c6 00 	call	0x18c	; 0x18c <chrready>
 40a:	88 23       	and	r24, r24
 40c:	b9 f3       	breq	.-18     	; 0x3fc <main+0x18>
			char c = getchr();
 40e:	0e 94 cf 00 	call	0x19e	; 0x19e <getchr>
 412:	18 2f       	mov	r17, r24
			putchr(c);
 414:	0e 94 a2 00 	call	0x144	; 0x144 <putchr>
			addtocmd(c);
 418:	81 2f       	mov	r24, r17
 41a:	0e 94 c9 01 	call	0x392	; 0x392 <addtocmd>
 41e:	ee cf       	rjmp	.-36     	; 0x3fc <main+0x18>

00000420 <_exit>:
 420:	f8 94       	cli

00000422 <__stop_program>:
 422:	ff cf       	rjmp	.-2      	; 0x422 <__stop_program>
